(dp0
S'tearRate'
p1
(dp2
S'1'
p3
I2
sI1
S'2'
p4
sI2
(dp5
S'age'
p6
(dp7
g3
(dp8
S'prescript'
p9
(dp10
g3
g4
sg4
g3
sssg4
(dp11
g9
(dp12
g3
g3
sg4
g4
sssssg4
(dp13
S'astigmatic'
p14
(dp15
g3
I1
sg4
I0
sssI0
g4
ss.